; Function Attrs: mustprogress nofree norecurse nosync nounwind null_pointer_is_valid sspstrong willreturn memory(argmem: readwrite) uwtable
define hidden void @rtpstream_id_copy_pinfo_shallow(ptr noundef readonly captures(none) %0, ptr noundef writeonly captures(none) initializes((0, 26), (32, 58)) %1, i1 noundef zeroext %2) local_unnamed_addr #1 {
  %4 = getelementptr inbounds nuw i8, ptr %1, i64 4
  %5 = getelementptr inbounds nuw i8, ptr %1, i64 8
  %6 = getelementptr inbounds nuw i8, ptr %1, i64 16
  %. = select i1 %2, i64 232, i64 208
  %.41 = select i1 %2, i64 236, i64 212
  %.42 = select i1 %2, i64 240, i64 216
  %.43 = select i1 %2, i64 288, i64 284
  %.44 = select i1 %2, i64 208, i64 232
  %.45 = select i1 %2, i64 212, i64 236
  %.46 = select i1 %2, i64 216, i64 240
  %.47 = select i1 %2, i64 284, i64 288
  %7 = getelementptr inbounds nuw i8, ptr %0, i64 %.
  %8 = load i32, ptr %7, align 8
  %9 = getelementptr inbounds nuw i8, ptr %0, i64 %.41
  %10 = load i32, ptr %9, align 4
  %11 = getelementptr inbounds nuw i8, ptr %0, i64 %.42
  %12 = load ptr, ptr %11, align 8
  store i32 %8, ptr %1, align 8
  store i32 %10, ptr %4, align 4
  store ptr %12, ptr %5, align 8
  store ptr null, ptr %6, align 8
  %13 = getelementptr inbounds nuw i8, ptr %0, i64 %.43
  %.sink30 = load i32, ptr %13, align 4
  %14 = getelementptr inbounds nuw i8, ptr %1, i64 32
  %15 = getelementptr inbounds nuw i8, ptr %1, i64 24
  %16 = trunc i32 %.sink30 to i16
  store i16 %16, ptr %15, align 8
  %17 = getelementptr inbounds nuw i8, ptr %0, i64 %.44
  %18 = load i32, ptr %17, align 8
  %19 = getelementptr inbounds nuw i8, ptr %0, i64 %.45
  %20 = load i32, ptr %19, align 4
  %21 = getelementptr inbounds nuw i8, ptr %0, i64 %.46
  %22 = load ptr, ptr %21, align 8
  store i32 %18, ptr %14, align 8
  %23 = getelementptr inbounds nuw i8, ptr %1, i64 36
  store i32 %20, ptr %23, align 4
  %24 = getelementptr inbounds nuw i8, ptr %1, i64 40
  store ptr %22, ptr %24, align 8
  %25 = getelementptr inbounds nuw i8, ptr %1, i64 48
  store ptr null, ptr %25, align 8
  %26 = getelementptr inbounds nuw i8, ptr %0, i64 %.47
  %.sink.in = load i32, ptr %26, align 4
  %.sink = trunc i32 %.sink.in to i16
  %27 = getelementptr inbounds nuw i8, ptr %1, i64 56
  store i16 %.sink, ptr %27, align 8
  ret void
}